target datalayout = "e-m:e-p270:32:32-p271:32:32-p272:64:64-i64:64-i128:128-f80:128-n8:16:32:64-S128"
target triple = "x86_64-pc-linux-gnu"

%struct._lv_theme_t = type { ptr, ptr, ptr, ptr, %struct.lv_color_t, %struct.lv_color_t, ptr, ptr, ptr, i32 }
%struct.lv_color_t = type { i8, i8, i8 }

; Function Attrs: nounwind uwtable
define ptr @lv_theme_get_from_obj(ptr noundef %0) #0 {
  %2 = alloca ptr, align 8
  %3 = alloca ptr, align 8
  store ptr %0, ptr %2, align 8, !tbaa !3
  call void @llvm.lifetime.start.p0(i64 8, ptr %3) #4
  %4 = load ptr, ptr %2, align 8, !tbaa !3
  %5 = icmp ne ptr %4, null
  br i1 %5, label %6, label %9

6:                                                ; preds = %1
  %7 = load ptr, ptr %2, align 8, !tbaa !3
  %8 = call ptr @lv_obj_get_display(ptr noundef %7)
  br label %11

9:                                                ; preds = %1
  %10 = call ptr @lv_display_get_default()
  br label %11

11:                                               ; preds = %9, %6
  %12 = phi ptr [ %8, %6 ], [ %10, %9 ]
  store ptr %12, ptr %3, align 8, !tbaa !8
  %13 = load ptr, ptr %3, align 8, !tbaa !8
  %14 = call ptr @lv_display_get_theme(ptr noundef %13)
  call void @llvm.lifetime.end.p0(i64 8, ptr %3) #4
  ret ptr %14
}

; Function Attrs: nounwind uwtable
define i24 @lv_theme_get_color_primary(ptr noundef %0) #0 {
  %2 = alloca %struct.lv_color_t, align 1
  %3 = alloca ptr, align 8
  %4 = alloca ptr, align 8
  %5 = alloca i24, align 4
  store ptr %0, ptr %3, align 8, !tbaa !3
  call void @llvm.lifetime.start.p0(i64 8, ptr %4) #4
  %6 = load ptr, ptr %3, align 8, !tbaa !3
  %7 = call ptr @lv_theme_get_from_obj(ptr noundef %6)
  store ptr %7, ptr %4, align 8, !tbaa !10
  %8 = load ptr, ptr %4, align 8, !tbaa !10
  %9 = icmp ne ptr %8, null
  br i1 %9, label %10, label %13

10:                                               ; preds = %1
  %11 = load ptr, ptr %4, align 8, !tbaa !10
  %12 = getelementptr inbounds nuw %struct._lv_theme_t, ptr %11, i32 0, i32 4
  call void @llvm.memcpy.p0.p0.i64(ptr align 1 %2, ptr align 8 %12, i64 3, i1 false), !tbaa.struct !33
  br label %15

13:                                               ; preds = %1
  %14 = call i24 @lv_palette_main(i32 noundef 17)
  store i24 %14, ptr %2, align 1
  br label %15

15:                                               ; preds = %13, %10
  call void @llvm.lifetime.end.p0(i64 8, ptr %4) #4
  call void @llvm.memcpy.p0.p0.i64(ptr align 4 %5, ptr align 1 %2, i64 3, i1 false)
  %16 = load i24, ptr %5, align 4
  ret i24 %16
}